target datalayout = "e-m:e-p270:32:32-p271:32:32-p272:64:64-i64:64-i128:128-f80:128-n8:16:32:64-S128"
target triple = "x86_64-pc-linux-gnu"

%struct.PJconsts = type { ptr, ptr, ptr, ptr, ptr, ptr, ptr, ptr, ptr, ptr, ptr, ptr, i32, ptr, ptr, ptr, ptr, ptr, ptr, ptr, ptr, double, double, double, double, double, double, double, double, double, double, double, double, double, double, double, double, double, double, double, double, double, double, i32, i32, i32, i32, i32, i32, i32, i32, i32, i32, i32, ptr, ptr, ptr, ptr, ptr, ptr, double, double, double, double, double, double, double, double, double, double, double, i32, [7 x double], i32, ptr, ptr, double, double, i32, [4 x i8], %"class.std::shared_ptr", i8, double, i8, %"class.std::__cxx11::basic_string", %"class.std::__cxx11::basic_string", %"class.std::__cxx11::basic_string", i8, %"class.std::vector", i32, %"class.std::vector.3", i32, i8, i8, i8, ptr }
%"class.std::shared_ptr" = type { %"class.std::__shared_ptr" }
%"class.std::__shared_ptr" = type { ptr, %"class.std::__shared_count" }
%"class.std::__shared_count" = type { ptr }
%"class.std::__cxx11::basic_string" = type { %"struct.std::__cxx11::basic_string<char>::_Alloc_hider", i64, %union.anon }
%"struct.std::__cxx11::basic_string<char>::_Alloc_hider" = type { ptr }
%union.anon = type { i64, [8 x i8] }
%"class.std::vector" = type { %"struct.std::_Vector_base" }
%"struct.std::_Vector_base" = type { %"struct.std::_Vector_base<osgeo::proj::operation::GridDescription, std::allocator<osgeo::proj::operation::GridDescription>>::_Vector_impl" }
%"struct.std::_Vector_base<osgeo::proj::operation::GridDescription, std::allocator<osgeo::proj::operation::GridDescription>>::_Vector_impl" = type { %"struct.std::_Vector_base<osgeo::proj::operation::GridDescription, std::allocator<osgeo::proj::operation::GridDescription>>::_Vector_impl_data" }
%"struct.std::_Vector_base<osgeo::proj::operation::GridDescription, std::allocator<osgeo::proj::operation::GridDescription>>::_Vector_impl_data" = type { ptr, ptr, ptr }
%"class.std::vector.3" = type { %"struct.std::_Vector_base.4" }
%"struct.std::_Vector_base.4" = type { %"struct.std::_Vector_base<PJCoordOperation, std::allocator<PJCoordOperation>>::_Vector_impl" }
%"struct.std::_Vector_base<PJCoordOperation, std::allocator<PJCoordOperation>>::_Vector_impl" = type { %"struct.std::_Vector_base<PJCoordOperation, std::allocator<PJCoordOperation>>::_Vector_impl_data" }
%"struct.std::_Vector_base<PJCoordOperation, std::allocator<PJCoordOperation>>::_Vector_impl_data" = type { ptr, ptr, ptr }
%"struct.(anonymous namespace)::pj_loxim_data" = type { double, double, double }
%struct.PJ_LP = type { double, double }
%struct.PJ_XY = type { double, double }

; Function Attrs: mustprogress nounwind uwtable
define internal { double, double } @_ZL15loxim_s_inverse5PJ_XYP8PJconsts(double %0, double %1, ptr noundef %2) #6 {
  %4 = alloca %struct.PJ_LP, align 8
  %5 = alloca %struct.PJ_XY, align 8
  %6 = alloca ptr, align 8
  %7 = alloca ptr, align 8
  %8 = getelementptr inbounds nuw { double, double }, ptr %5, i32 0, i32 0
  store double %0, ptr %8, align 8
  %9 = getelementptr inbounds nuw { double, double }, ptr %5, i32 0, i32 1
  store double %1, ptr %9, align 8
  store ptr %2, ptr %6, align 8, !tbaa !3
  call void @llvm.memset.p0.i64(ptr align 8 %4, i8 0, i64 16, i1 false)
  call void @llvm.lifetime.start.p0(i64 8, ptr %7) #8
  %10 = load ptr, ptr %6, align 8, !tbaa !3
  %11 = getelementptr inbounds nuw %struct.PJconsts, ptr %10, i32 0, i32 11
  %12 = load ptr, ptr %11, align 8, !tbaa !43
  store ptr %12, ptr %7, align 8, !tbaa !41
  %13 = getelementptr inbounds nuw %struct.PJ_XY, ptr %5, i32 0, i32 1
  %14 = load double, ptr %13, align 8, !tbaa !55
  %15 = load ptr, ptr %7, align 8, !tbaa !41
  %16 = getelementptr inbounds nuw %"struct.(anonymous namespace)::pj_loxim_data", ptr %15, i32 0, i32 0
  %17 = load double, ptr %16, align 8, !tbaa !47
  %18 = fadd double %14, %17
  %19 = getelementptr inbounds nuw %struct.PJ_LP, ptr %4, i32 0, i32 1
  store double %18, ptr %19, align 8, !tbaa !57
  %20 = getelementptr inbounds nuw %struct.PJ_XY, ptr %5, i32 0, i32 1
  %21 = load double, ptr %20, align 8, !tbaa !55
  %22 = call double @llvm.fabs.f64(double %21)
  %23 = fcmp olt double %22, 1.000000e-08
  br i1 %23, label %24, label %32

24:                                               ; preds = %3
  %25 = getelementptr inbounds nuw %struct.PJ_XY, ptr %5, i32 0, i32 0
  %26 = load double, ptr %25, align 8, !tbaa !59
  %27 = load ptr, ptr %7, align 8, !tbaa !41
  %28 = getelementptr inbounds nuw %"struct.(anonymous namespace)::pj_loxim_data", ptr %27, i32 0, i32 1
  %29 = load double, ptr %28, align 8, !tbaa !50
  %30 = fdiv double %26, %29
  %31 = getelementptr inbounds nuw %struct.PJ_LP, ptr %4, i32 0, i32 0
  store double %30, ptr %31, align 8, !tbaa !60
  br label %67

32:                                               ; preds = %3
  %33 = getelementptr inbounds nuw %struct.PJ_LP, ptr %4, i32 0, i32 1
  %34 = load double, ptr %33, align 8, !tbaa !57
  %35 = call double @llvm.fmuladd.f64(double 5.000000e-01, double %34, double 0x3FE921FB54442D18)
  %36 = getelementptr inbounds nuw %struct.PJ_LP, ptr %4, i32 0, i32 0
  store double %35, ptr %36, align 8, !tbaa !60
  %37 = getelementptr inbounds nuw %struct.PJ_LP, ptr %4, i32 0, i32 0
  %38 = load double, ptr %37, align 8, !tbaa !60
  %39 = call double @llvm.fabs.f64(double %38)
  %40 = fcmp olt double %39, 1.000000e-08
  br i1 %40, label %48, label %41

41:                                               ; preds = %32
  %42 = getelementptr inbounds nuw %struct.PJ_LP, ptr %4, i32 0, i32 0
  %43 = load double, ptr %42, align 8, !tbaa !60
  %44 = call double @llvm.fabs.f64(double %43)
  %45 = fsub double %44, 0x3FF921FB54442D18
  %46 = call double @llvm.fabs.f64(double %45)
  %47 = fcmp olt double %46, 1.000000e-08
  br i1 %47, label %48, label %50

48:                                               ; preds = %41, %32
  %49 = getelementptr inbounds nuw %struct.PJ_LP, ptr %4, i32 0, i32 0
  store double 0.000000e+00, ptr %49, align 8, !tbaa !60
  br label %66

50:                                               ; preds = %41
  %51 = getelementptr inbounds nuw %struct.PJ_XY, ptr %5, i32 0, i32 0
  %52 = load double, ptr %51, align 8, !tbaa !59
  %53 = getelementptr inbounds nuw %struct.PJ_LP, ptr %4, i32 0, i32 0
  %54 = load double, ptr %53, align 8, !tbaa !60
  %55 = call double @tan(double noundef %54) #8, !tbaa !49
  %56 = load ptr, ptr %7, align 8, !tbaa !41
  %57 = getelementptr inbounds nuw %"struct.(anonymous namespace)::pj_loxim_data", ptr %56, i32 0, i32 2
  %58 = load double, ptr %57, align 8, !tbaa !51
  %59 = fdiv double %55, %58
  %60 = call double @log(double noundef %59) #8, !tbaa !49
  %61 = fmul double %52, %60
  %62 = getelementptr inbounds nuw %struct.PJ_XY, ptr %5, i32 0, i32 1
  %63 = load double, ptr %62, align 8, !tbaa !55
  %64 = fdiv double %61, %63
  %65 = getelementptr inbounds nuw %struct.PJ_LP, ptr %4, i32 0, i32 0
  store double %64, ptr %65, align 8, !tbaa !60
  br label %66

66:                                               ; preds = %50, %48
  br label %67

67:                                               ; preds = %66, %24
  call void @llvm.lifetime.end.p0(i64 8, ptr %7) #8
  %68 = load { double, double }, ptr %4, align 8
  ret { double, double } %68
}