; Function Attrs: mustprogress nofree nounwind willreturn memory(readwrite, inaccessiblemem: write) uwtable
define internal { double, double } @_ZL15loxim_s_inverse5PJ_XYP8PJconsts(double %0, double %1, ptr noundef readonly captures(none) %2) #5 {
  %4 = getelementptr inbounds nuw i8, ptr %2, i64 88
  %5 = load ptr, ptr %4, align 8, !tbaa !40
  %6 = load double, ptr %5, align 8, !tbaa !43
  %7 = fadd double %1, %6
  %8 = tail call double @llvm.fabs.f64(double %1)
  %9 = fcmp olt double %8, 1.000000e-08
  br i1 %9, label %10, label %14

10:                                               ; preds = %3
  %11 = getelementptr inbounds nuw i8, ptr %5, i64 8
  %12 = load double, ptr %11, align 8, !tbaa !46
  %13 = fdiv double %0, %12
  br label %30

14:                                               ; preds = %3
  %15 = tail call double @llvm.fmuladd.f64(double %7, double 5.000000e-01, double 0x3FE921FB54442D18)
  %16 = tail call double @llvm.fabs.f64(double %15)
  %17 = fcmp olt double %16, 1.000000e-08
  br i1 %17, label %30, label %18

18:                                               ; preds = %14
  %19 = fadd double %16, 0xBFF921FB54442D18
  %20 = tail call double @llvm.fabs.f64(double %19)
  %21 = fcmp olt double %20, 1.000000e-08
  br i1 %21, label %30, label %22

22:                                               ; preds = %18
  %23 = tail call double @tan(double noundef %15) #7, !tbaa !45
  %24 = getelementptr inbounds nuw i8, ptr %5, i64 16
  %25 = load double, ptr %24, align 8, !tbaa !47
  %26 = fdiv double %23, %25
  %27 = tail call double @log(double noundef %26) #7, !tbaa !45
  %28 = fmul double %0, %27
  %29 = fdiv double %28, %1
  br label %30

30:                                               ; preds = %14, %18, %22, %10
  %.sroa.07.0 = phi double [ %13, %10 ], [ %29, %22 ], [ 0.000000e+00, %18 ], [ 0.000000e+00, %14 ]
  %.fca.0.insert = insertvalue { double, double } poison, double %.sroa.07.0, 0
  %.fca.1.insert = insertvalue { double, double } %.fca.0.insert, double %7, 1
  ret { double, double } %.fca.1.insert
}